; Function Attrs: nounwind uwtable
define internal void @relative_pointer_handle_relative_motion(ptr noundef readonly captures(none) %0, ptr readnone captures(none) %1, i32 noundef %2, i32 noundef %3, i32 noundef %4, i32 noundef %5, i32 noundef %6, i32 noundef %7) #0 {
  %9 = getelementptr inbounds nuw i8, ptr %0, i64 320
  %10 = load ptr, ptr %9, align 8
  %11 = tail call ptr @SDL_GetMouse() #12
  %12 = zext i32 %2 to i64
  %13 = shl nuw i64 %12, 32
  %14 = zext i32 %3 to i64
  %15 = or disjoint i64 %13, %14
  %16 = mul i64 %15, 1000
  %17 = tail call i64 @SDL_GetTicksNS_REAL() #12
  %18 = load i64, ptr @Wayland_AdjustEventTimestampBase.timestamp_offset, align 8
  %.not.not.i = icmp eq i64 %18, 0
  %19 = sub i64 %17, %16
  %20 = select i1 %.not.not.i, i64 %19, i64 %18
  %21 = add i64 %20, %16
  %.not.i = icmp ugt i64 %21, %17
  %22 = or i1 %.not.not.i, %.not.i
  br i1 %22, label %23, label %Wayland_AdjustEventTimestampBase.exit

23:                                               ; preds = %8
  %simplifycfg.merge.i = select i1 %.not.i, i64 %19, i64 %20
  store i64 %simplifycfg.merge.i, ptr @Wayland_AdjustEventTimestampBase.timestamp_offset, align 8
  br label %Wayland_AdjustEventTimestampBase.exit

Wayland_AdjustEventTimestampBase.exit:            ; preds = %8, %23
  %24 = getelementptr inbounds nuw i8, ptr %11, i64 96
  %25 = load ptr, ptr %24, align 8
  %.not = icmp eq ptr %25, null
  br i1 %.not, label %26, label %30

26:                                               ; preds = %Wayland_AdjustEventTimestampBase.exit
  %27 = getelementptr inbounds nuw i8, ptr %11, i64 216
  %28 = load i8, ptr %27, align 8, !range !6, !noundef !7
  %29 = trunc nuw i8 %28 to i1
  br i1 %29, label %39, label %30

30:                                               ; preds = %26, %Wayland_AdjustEventTimestampBase.exit
  %31 = sext i32 %6 to i64
  %32 = add nsw i64 %31, 4807592602218004480
  %33 = bitcast i64 %32 to double
  %34 = fadd double %33, 0xC2B8000000000000
  %35 = sext i32 %7 to i64
  %36 = add nsw i64 %35, 4807592602218004480
  %37 = bitcast i64 %36 to double
  %38 = fadd double %37, 0xC2B8000000000000
  br label %54

39:                                               ; preds = %26
  %40 = sext i32 %4 to i64
  %41 = add nsw i64 %40, 4807592602218004480
  %42 = bitcast i64 %41 to double
  %43 = fadd double %42, 0xC2B8000000000000
  %44 = getelementptr inbounds nuw i8, ptr %10, i64 280
  %45 = load double, ptr %44, align 8
  %46 = fmul double %43, %45
  %47 = sext i32 %5 to i64
  %48 = add nsw i64 %47, 4807592602218004480
  %49 = bitcast i64 %48 to double
  %50 = fadd double %49, 0xC2B8000000000000
  %51 = getelementptr inbounds nuw i8, ptr %10, i64 288
  %52 = load double, ptr %51, align 8
  %53 = fmul double %50, %52
  br label %54

54:                                               ; preds = %39, %30
  %.016 = phi double [ %34, %30 ], [ %46, %39 ]
  %.0 = phi double [ %38, %30 ], [ %53, %39 ]
  %.0.i = tail call i64 @llvm.umin.i64(i64 %21, i64 %17)
  %55 = load ptr, ptr %10, align 8
  %56 = getelementptr inbounds nuw i8, ptr %0, i64 360
  %57 = load i32, ptr %56, align 8
  %58 = fptrunc double %.016 to float
  %59 = fptrunc double %.0 to float
  tail call void @SDL_SendMouseMotion(i64 noundef %.0.i, ptr noundef %55, i32 noundef %57, i1 noundef zeroext true, float noundef %58, float noundef %59) #12
  ret void
}